; Function Attrs: nounwind uwtable
define internal fastcc range(i32 -1, 256) i32 @teardown_fire(i32 noundef %0, ptr noundef nonnull readonly captures(none) %1, ptr noundef readonly %2) unnamed_addr #0 {
  %4 = icmp eq i32 %0, -1
  br i1 %4, label %19, label %5

5:                                                ; preds = %3
  %.not = icmp eq ptr %2, null
  %6 = tail call ptr @PyErr_Occurred() #4
  %.not5 = icmp eq ptr %6, null
  br i1 %.not, label %14, label %7

7:                                                ; preds = %5
  br i1 %.not5, label %8, label %9

8:                                                ; preds = %7
  tail call void @__assert_fail(ptr noundef nonnull @.str.29, ptr noundef nonnull @.str.30, i32 noundef 136, ptr noundef nonnull @__PRETTY_FUNCTION__.teardown_fire) #5
  unreachable

9:                                                ; preds = %7
  %10 = getelementptr i8, ptr %2, i64 8
  %.val = load ptr, ptr %10, align 8, !tbaa !14
  %11 = tail call ptr @PyErr_Occurred() #4
  %12 = icmp eq ptr %.val, %11
  br i1 %12, label %16, label %13

13:                                               ; preds = %9
  tail call void @__assert_fail(ptr noundef nonnull @.str.34, ptr noundef nonnull @.str.30, i32 noundef 137, ptr noundef nonnull @__PRETTY_FUNCTION__.teardown_fire) #5
  unreachable

14:                                               ; preds = %5
  br i1 %.not5, label %16, label %15

15:                                               ; preds = %14
  tail call void @__assert_fail(ptr noundef nonnull @.str.31, ptr noundef nonnull @.str.30, i32 noundef 141, ptr noundef nonnull @__PRETTY_FUNCTION__.teardown_fire) #5
  unreachable

16:                                               ; preds = %14, %9
  tail call void @PyErr_Clear() #4
  %17 = load i8, ptr %1, align 1, !tbaa !27
  %18 = zext i8 %17 to i32
  br label %19

19:                                               ; preds = %3, %16
  %.0 = phi i32 [ %18, %16 ], [ -1, %3 ]
  ret i32 %.0
}